(dp0
S'regression_grid_interarrival'
p1
(dp2
S'prior'
p3
(dp4
S'interval'
p5
F0.8
sS'r2'
p6
cnumpy.core.multiarray
scalar
p7
(cnumpy
dtype
p8
(S'f8'
p9
I0
I1
tp10
Rp11
(I3
S'<'
p12
NNNI-1
I-1
I0
tp13
bS'h\xd7\xffy\xc9\xc4\xc8?'
p14
tp15
Rp16
sS'coefs'
p17
cnumpy.core.multiarray
_reconstruct
p18
(cnumpy
ndarray
p19
(I0
tp20
S'b'
p21
tp22
Rp23
(I1
(I1
I2
tp24
g11
I00
S'4\x03\x82\x03\xc9\xbc\xbc\xbe\x81\xff\xafg\x8cT\xaa='
p25
tp26
bssS'post'
p27
(dp28
g5
F0.3
sg6
g7
(g11
S'\x00b\x9d\x81\x0c2S?'
p29
tp30
Rp31
sg17
g18
(g19
(I0
tp32
g21
tp33
Rp34
(I1
(I1
I2
tp35
g11
I00
S'Z\xabE\x10-\x82\x99\xc0\xee<\xfa\xa3\x92\x07\x0c\xbf'
p36
tp37
bsssS'regression_cluster_interarrival'
p38
(dp39
g3
(dp40
S'eps'
p41
I26
sg6
g7
(g11
S'\xe4\x8f$`\xe6z\xcc?'
p42
tp43
Rp44
sg17
g18
(g19
(I0
tp45
g21
tp46
Rp47
(I1
(I2
tp48
g11
I00
S'j\xde<\xda\xd3.\xfd?\xb2U>\xf3\xe2I\xfc\xbf'
p49
tp50
bssg27
(dp51
g41
I26
sg6
g7
(g11
S'\x90\xfa<\t\xce\xe5\xcc?'
p52
tp53
Rp54
sg17
g18
(g19
(I0
tp55
g21
tp56
Rp57
(I1
(I2
tp58
g11
I00
S'p\x0e\xdd\xbc\r\xba\xf5?{:\xf2\xa2\x02\xdf\xf4\xbf'
p59
tp60
bsssS'grid_regression'
p61
(dp62
g3
(dp63
g5
F2.0
sg6
g7
(g11
S'\x9eR\xb6\xe7#\xce\xe7?'
p64
tp65
Rp66
sg17
g18
(g19
(I0
tp67
g21
tp68
Rp69
(I1
(I1
I2
tp70
g11
I00
S'\xdb\x07\xf4\xd3@\xa1\xfe\xbf\xec\xfbt\x91\x81U\x06@'
p71
tp72
bssg27
(dp73
g5
F1.5
sg6
g7
(g11
S'Z\xefZM\x19\xd0\xdb?'
p74
tp75
Rp76
sg17
g18
(g19
(I0
tp77
g21
tp78
Rp79
(I1
(I1
I2
tp80
g11
I00
S'\xecOeE\xcd\x0e\xd5\xbf#[\xc4\xa4\x06\x14\xc4>'
p81
tp82
bsss.