(dp0
S'regression_grid_interarrival'
p1
(dp2
S'prior'
p3
(dp4
S'interval'
p5
F0.9
sS'r2'
p6
cnumpy.core.multiarray
scalar
p7
(cnumpy
dtype
p8
(S'f8'
p9
I0
I1
tp10
Rp11
(I3
S'<'
p12
NNNI-1
I-1
I0
tp13
bS'\x94\xdf~R\\m\xd8?'
p14
tp15
Rp16
sS'coefs'
p17
cnumpy.core.multiarray
_reconstruct
p18
(cnumpy
ndarray
p19
(I0
tp20
S'b'
p21
tp22
Rp23
(I1
(I1
I2
tp24
g11
I00
S'\xcdC\x17\xf9F\xde\xf4\xbe\xf1\x1e\xda\x1d\xff\xf6@>'
p25
tp26
bssS'post'
p27
(dp28
g5
F1.5
sg6
g7
(g11
S'Z\xefZM\x19\xd0\xdb?'
p29
tp30
Rp31
sg17
g18
(g19
(I0
tp32
g21
tp33
Rp34
(I1
(I1
I2
tp35
g11
I00
S'\xecOeE\xcd\x0e\xd5\xbf#[\xc4\xa4\x06\x14\xc4>'
p36
tp37
bsssS'regression_cluster_interarrival'
p38
(dp39
g3
(dp40
S'eps'
p41
F0.9
sg6
g16
sg17
g23
ssg27
(dp42
g41
F1.5
sg6
g31
sg17
g34
sssS'grid_regression'
p43
(dp44
g3
(dp45
g5
F0.9
sg6
g16
sg17
g23
ssg27
(dp46
g5
F1.5
sg6
g31
sg17
g34
sss.